target datalayout = "e-m:e-p270:32:32-p271:32:32-p272:64:64-i64:64-i128:128-f80:128-n8:16:32:64-S128"
target triple = "x86_64-unknown-linux-gnu"

%"class.QuantLib::Date" = type { i64 }
%"class.QuantLib::Bond" = type { %"class.QuantLib::Instrument.base", i32, %"class.QuantLib::Calendar", %"class.std::vector", %"class.std::vector.16", %"class.std::vector.21", %"class.std::vector.21", %"class.QuantLib::Date", %"class.QuantLib::Date", double, %"class.QuantLib::Observable", %"class.QuantLib::Observer" }
%"class.QuantLib::Instrument.base" = type { %"class.QuantLib::LazyObject.base", double, double, %"class.QuantLib::Date", %"class.std::map", %"class.boost::shared_ptr.11" }
%"class.QuantLib::LazyObject.base" = type <{ ptr, i8, i8, i8, i8 }>
%"class.std::map" = type { %"class.std::_Rb_tree.6" }
%"class.std::_Rb_tree.6" = type { %"struct.std::_Rb_tree<std::__cxx11::basic_string<char>, std::pair<const std::__cxx11::basic_string<char>, boost::any>, std::_Select1st<std::pair<const std::__cxx11::basic_string<char>, boost::any>>, std::less<std::__cxx11::basic_string<char>>>::_Rb_tree_impl" }
%"struct.std::_Rb_tree<std::__cxx11::basic_string<char>, std::pair<const std::__cxx11::basic_string<char>, boost::any>, std::_Select1st<std::pair<const std::__cxx11::basic_string<char>, boost::any>>, std::less<std::__cxx11::basic_string<char>>>::_Rb_tree_impl" = type { [8 x i8], %"struct.std::_Rb_tree_header" }
%"struct.std::_Rb_tree_header" = type { %"struct.std::_Rb_tree_node_base", i64 }
%"struct.std::_Rb_tree_node_base" = type { i32, ptr, ptr, ptr }
%"class.boost::shared_ptr.11" = type { ptr, %"class.boost::detail::shared_count" }
%"class.boost::detail::shared_count" = type { ptr }
%"class.QuantLib::Calendar" = type { %"class.boost::shared_ptr.12" }
%"class.boost::shared_ptr.12" = type { ptr, %"class.boost::detail::shared_count" }
%"class.std::vector" = type { %"struct.std::_Vector_base" }
%"struct.std::_Vector_base" = type { %"struct.std::_Vector_base<QuantLib::Date, std::allocator<QuantLib::Date>>::_Vector_impl" }
%"struct.std::_Vector_base<QuantLib::Date, std::allocator<QuantLib::Date>>::_Vector_impl" = type { %"struct.std::_Vector_base<QuantLib::Date, std::allocator<QuantLib::Date>>::_Vector_impl_data" }
%"struct.std::_Vector_base<QuantLib::Date, std::allocator<QuantLib::Date>>::_Vector_impl_data" = type { ptr, ptr, ptr }
%"class.std::vector.16" = type { %"struct.std::_Vector_base.17" }
%"struct.std::_Vector_base.17" = type { %"struct.std::_Vector_base<double, std::allocator<double>>::_Vector_impl" }
%"struct.std::_Vector_base<double, std::allocator<double>>::_Vector_impl" = type { %"struct.std::_Vector_base<double, std::allocator<double>>::_Vector_impl_data" }
%"struct.std::_Vector_base<double, std::allocator<double>>::_Vector_impl_data" = type { ptr, ptr, ptr }
%"class.std::vector.21" = type { %"struct.std::_Vector_base.22" }
%"struct.std::_Vector_base.22" = type { %"struct.std::_Vector_base<boost::shared_ptr<QuantLib::CashFlow>, std::allocator<boost::shared_ptr<QuantLib::CashFlow>>>::_Vector_impl" }
%"struct.std::_Vector_base<boost::shared_ptr<QuantLib::CashFlow>, std::allocator<boost::shared_ptr<QuantLib::CashFlow>>>::_Vector_impl" = type { %"struct.std::_Vector_base<boost::shared_ptr<QuantLib::CashFlow>, std::allocator<boost::shared_ptr<QuantLib::CashFlow>>>::_Vector_impl_data" }
%"struct.std::_Vector_base<boost::shared_ptr<QuantLib::CashFlow>, std::allocator<boost::shared_ptr<QuantLib::CashFlow>>>::_Vector_impl_data" = type { ptr, ptr, ptr }
%"class.QuantLib::Observable" = type { ptr, %"class.std::set.0" }
%"class.std::set.0" = type { %"class.std::_Rb_tree.1" }
%"class.std::_Rb_tree.1" = type { %"struct.std::_Rb_tree<QuantLib::Observer *, QuantLib::Observer *, std::_Identity<QuantLib::Observer *>, std::less<QuantLib::Observer *>>::_Rb_tree_impl" }
%"struct.std::_Rb_tree<QuantLib::Observer *, QuantLib::Observer *, std::_Identity<QuantLib::Observer *>, std::less<QuantLib::Observer *>>::_Rb_tree_impl" = type { [8 x i8], %"struct.std::_Rb_tree_header" }
%"class.QuantLib::Observer" = type { ptr, %"class.std::set" }
%"class.std::set" = type { %"class.std::_Rb_tree" }
%"class.std::_Rb_tree" = type { %"struct.std::_Rb_tree<boost::shared_ptr<QuantLib::Observable>, boost::shared_ptr<QuantLib::Observable>, std::_Identity<boost::shared_ptr<QuantLib::Observable>>, std::less<boost::shared_ptr<QuantLib::Observable>>>::_Rb_tree_impl" }
%"struct.std::_Rb_tree<boost::shared_ptr<QuantLib::Observable>, boost::shared_ptr<QuantLib::Observable>, std::_Identity<boost::shared_ptr<QuantLib::Observable>>, std::less<boost::shared_ptr<QuantLib::Observable>>>::_Rb_tree_impl" = type { [8 x i8], %"struct.std::_Rb_tree_header" }

; Function Attrs: inlinehint mustprogress nounwind uwtable
define linkonce_odr noundef i64 @_ZNK8QuantLib4Date12serialNumberEv(ptr noundef nonnull align 8 dereferenceable(8) %this) #6 comdat align 2 {
entry:
  %this.addr = alloca ptr, align 8
  store ptr %this, ptr %this.addr, align 8, !tbaa !3
  %this1 = load ptr, ptr %this.addr, align 8
  %serialNumber_ = getelementptr inbounds nuw %"class.QuantLib::Date", ptr %this1, i32 0, i32 0
  %0 = load i64, ptr %serialNumber_, align 8, !tbaa !33
  ret i64 %0
}

; Function Attrs: inlinehint mustprogress nounwind uwtable
define linkonce_odr noundef nonnull align 8 dereferenceable(24) ptr @_ZNK8QuantLib4Bond9cashflowsEv(ptr noundef nonnull align 8 dereferenceable(248) %this) #6 comdat align 2 {
entry:
  %this.addr = alloca ptr, align 8
  store ptr %this, ptr %this.addr, align 8, !tbaa !3
  %this1 = load ptr, ptr %this.addr, align 8
  %cashflows_ = getelementptr inbounds nuw %"class.QuantLib::Bond", ptr %this1, i32 0, i32 5
  ret ptr %cashflows_
}

; Function Attrs: inlinehint mustprogress uwtable
define linkonce_odr noundef zeroext i1 @_ZN8QuantLibeqERKNS_4DateES2_(ptr noundef nonnull align 8 dereferenceable(8) %d1, ptr noundef nonnull align 8 dereferenceable(8) %d2) #7 comdat {
entry:
  %d1.addr = alloca ptr, align 8
  %d2.addr = alloca ptr, align 8
  store ptr %d1, ptr %d1.addr, align 8, !tbaa !3
  store ptr %d2, ptr %d2.addr, align 8, !tbaa !3
  %0 = load ptr, ptr %d1.addr, align 8, !tbaa !3
  %call = call noundef i64 @_ZNK8QuantLib4Date12serialNumberEv(ptr noundef nonnull align 8 dereferenceable(8) %0)
  %1 = load ptr, ptr %d2.addr, align 8, !tbaa !3
  %call1 = call noundef i64 @_ZNK8QuantLib4Date12serialNumberEv(ptr noundef nonnull align 8 dereferenceable(8) %1)
  %cmp = icmp eq i64 %call, %call1
  ret i1 %cmp
}

; Function Attrs: mustprogress uwtable
define noundef double @_ZN8QuantLib13BondFunctions22previousCashFlowAmountERKNS_4BondENS_4DateE(ptr noundef nonnull align 8 dereferenceable(248) %bond, i64 %settlement.coerce) #4 align 2 {
entry:
  %settlement = alloca %"class.QuantLib::Date", align 8
  %bond.addr = alloca ptr, align 8
  %ref.tmp = alloca %"class.QuantLib::Date", align 8
  %ref.tmp1 = alloca %"class.QuantLib::Date", align 8
  %agg.tmp = alloca %"class.QuantLib::Date", align 8
  %agg.tmp6 = alloca %"class.QuantLib::Date", align 8
  %coerce.dive = getelementptr inbounds nuw %"class.QuantLib::Date", ptr %settlement, i32 0, i32 0
  store i64 %settlement.coerce, ptr %coerce.dive, align 8
  store ptr %bond, ptr %bond.addr, align 8, !tbaa !3
  call void @llvm.lifetime.start.p0(i64 8, ptr %ref.tmp) #14
  call void @_ZN8QuantLib4DateC1Ev(ptr noundef nonnull align 8 dereferenceable(8) %ref.tmp)
  %call = call noundef zeroext i1 @_ZN8QuantLibeqERKNS_4DateES2_(ptr noundef nonnull align 8 dereferenceable(8) %settlement, ptr noundef nonnull align 8 dereferenceable(8) %ref.tmp)
  call void @llvm.lifetime.end.p0(i64 8, ptr %ref.tmp) #14
  br i1 %call, label %if.then, label %if.end

if.then:                                          ; preds = %entry
  call void @llvm.lifetime.start.p0(i64 8, ptr %ref.tmp1) #14
  %0 = load ptr, ptr %bond.addr, align 8, !tbaa !3
  call void @_ZN8QuantLib4DateC1Ev(ptr noundef nonnull align 8 dereferenceable(8) %agg.tmp)
  %coerce.dive2 = getelementptr inbounds nuw %"class.QuantLib::Date", ptr %agg.tmp, i32 0, i32 0
  %1 = load i64, ptr %coerce.dive2, align 8
  %call3 = call i64 @_ZNK8QuantLib4Bond14settlementDateENS_4DateE(ptr noundef nonnull align 8 dereferenceable(248) %0, i64 %1)
  %coerce.dive4 = getelementptr inbounds nuw %"class.QuantLib::Date", ptr %ref.tmp1, i32 0, i32 0
  store i64 %call3, ptr %coerce.dive4, align 8
  call void @llvm.memcpy.p0.p0.i64(ptr align 8 %settlement, ptr align 8 %ref.tmp1, i64 8, i1 false), !tbaa.struct !7
  call void @llvm.lifetime.end.p0(i64 8, ptr %ref.tmp1) #14
  br label %if.end

if.end:                                           ; preds = %if.then, %entry
  %2 = load ptr, ptr %bond.addr, align 8, !tbaa !3
  %call5 = call noundef nonnull align 8 dereferenceable(24) ptr @_ZNK8QuantLib4Bond9cashflowsEv(ptr noundef nonnull align 8 dereferenceable(248) %2)
  call void @llvm.memcpy.p0.p0.i64(ptr align 8 %agg.tmp6, ptr align 8 %settlement, i64 8, i1 false), !tbaa.struct !7
  %coerce.dive7 = getelementptr inbounds nuw %"class.QuantLib::Date", ptr %agg.tmp6, i32 0, i32 0
  %3 = load i64, ptr %coerce.dive7, align 8
  %call8 = call noundef double @_ZN8QuantLib9CashFlows22previousCashFlowAmountERKSt6vectorIN5boost10shared_ptrINS_8CashFlowEEESaIS5_EEbNS_4DateE(ptr noundef nonnull align 8 dereferenceable(24) %call5, i1 noundef zeroext false, i64 %3)
  ret double %call8
}