; Function Attrs: mustprogress uwtable
define noundef double @_ZN8QuantLib13BondFunctions22previousCashFlowAmountERKNS_4BondENS_4DateE(ptr noundef nonnull align 8 dereferenceable(248) %bond, i64 %settlement.coerce) local_unnamed_addr #3 align 2 {
entry:
  %ref.tmp = alloca %"class.QuantLib::Date", align 8
  %agg.tmp = alloca %"class.QuantLib::Date", align 8
  call void @llvm.lifetime.start.p0(i64 8, ptr nonnull %ref.tmp) #16
  call void @_ZN8QuantLib4DateC1Ev(ptr noundef nonnull align 8 dereferenceable(8) %ref.tmp)
  %0 = load i64, ptr %ref.tmp, align 8, !tbaa !3
  %cmp.i = icmp eq i64 %settlement.coerce, %0
  call void @llvm.lifetime.end.p0(i64 8, ptr nonnull %ref.tmp) #16
  br i1 %cmp.i, label %if.then, label %if.end

if.then:                                          ; preds = %entry
  call void @_ZN8QuantLib4DateC1Ev(ptr noundef nonnull align 8 dereferenceable(8) %agg.tmp)
  %1 = load i64, ptr %agg.tmp, align 8
  %call3 = call i64 @_ZNK8QuantLib4Bond14settlementDateENS_4DateE(ptr noundef nonnull align 8 dereferenceable(248) %bond, i64 %1)
  br label %if.end

if.end:                                           ; preds = %if.then, %entry
  %settlement.sroa.0.0 = phi i64 [ %call3, %if.then ], [ %settlement.coerce, %entry ]
  %cashflows_.i = getelementptr inbounds nuw i8, ptr %bond, i64 176
  %call8 = call noundef double @_ZN8QuantLib9CashFlows22previousCashFlowAmountERKSt6vectorIN5boost10shared_ptrINS_8CashFlowEEESaIS5_EEbNS_4DateE(ptr noundef nonnull align 8 dereferenceable(24) %cashflows_.i, i1 noundef zeroext false, i64 %settlement.sroa.0.0)
  ret double %call8
}